target datalayout = "e-m:e-p270:32:32-p271:32:32-p272:64:64-i64:64-i128:128-f80:128-n8:16:32:64-S128"
target triple = "x86_64-pc-linux-gnu"

%"class.llvm::SmallVectorBase" = type { ptr, i32, i32 }
%"class.llvm::SmallPtrSetImplBase.base" = type <{ ptr, ptr, i32, i32, i32 }>
%"class.llvm::Type" = type { ptr, i32, i32, ptr }
%"class.llvm::LLVMContext" = type { ptr }
%"class.llvm::LLVMContextImpl" = type { %"class.llvm::SmallPtrSet.53", %"class.llvm::DenseMap", %"class.std::unique_ptr.56", %"class.std::unique_ptr.64", i8, i8, [6 x i8], %"class.std::optional.72", %"class.std::optional.80", i8, %"class.std::unique_ptr.88", ptr, ptr, %"class.llvm::DenseMap.96", %"class.llvm::DenseMap.99", %"class.llvm::DenseMap.99", %"class.llvm::DenseMap.102", %"class.llvm::DenseMap.105", %"class.llvm::DenseMap.108", %"class.llvm::DenseMap.111", %"class.llvm::FoldingSet", %"class.llvm::FoldingSet.114", %"class.llvm::FoldingSet.116", %"class.llvm::StringMap", %"class.llvm::DenseMap.130", %"class.llvm::DenseMap.133", %"class.llvm::DenseSet", %"class.llvm::DenseSet.139", %"class.llvm::DenseSet.144", %"class.llvm::DenseSet.149", %"class.llvm::DenseSet.154", %"class.llvm::DenseSet.159", %"class.llvm::DenseSet.164", %"class.llvm::DenseSet.169", %"class.llvm::DenseSet.174", %"class.llvm::DenseSet.179", %"class.llvm::DenseSet.184", %"class.llvm::DenseSet.189", %"class.llvm::DenseSet.194", %"class.llvm::DenseSet.199", %"class.llvm::DenseSet.204", %"class.llvm::DenseSet.209", %"class.llvm::DenseSet.214", %"class.llvm::DenseSet.219", %"class.llvm::DenseSet.224", %"class.llvm::DenseSet.229", %"class.llvm::DenseSet.234", %"class.llvm::DenseSet.239", %"class.llvm::DenseSet.244", %"class.llvm::DenseSet.249", %"class.llvm::DenseSet.254", %"class.llvm::DenseSet.259", %"class.llvm::DenseSet.264", %"class.llvm::DenseSet.269", %"class.llvm::DenseSet.274", %"class.llvm::DenseSet.279", %"class.std::optional.284", %"class.std::vector", %"class.std::vector.297", %"class.llvm::DenseMap.302", %"class.llvm::ConstantUniqueMap", %"class.llvm::ConstantUniqueMap.310", %"class.llvm::ConstantUniqueMap.316", %"class.llvm::DenseMap.322", %"class.llvm::DenseMap.325", %"class.llvm::DenseMap.328", %"class.llvm::DenseMap.331", %"class.llvm::StringMap.334", %"class.llvm::DenseMap.335", %"class.llvm::DenseMap.338", %"class.llvm::DenseMap.341", %"class.llvm::ConstantUniqueMap.344", %"class.llvm::ConstantUniqueMap.350", %"class.llvm::ConstantUniqueMap.356", ptr, ptr, %"class.llvm::Type", %"class.llvm::Type", %"class.llvm::Type", %"class.llvm::Type", %"class.llvm::Type", %"class.llvm::Type", %"class.llvm::Type", %"class.llvm::Type", %"class.llvm::Type", %"class.llvm::Type", %"class.llvm::Type", %"class.llvm::Type", %"class.llvm::IntegerType", %"class.llvm::IntegerType", %"class.llvm::IntegerType", %"class.llvm::IntegerType", %"class.llvm::IntegerType", %"class.llvm::IntegerType", %"class.std::unique_ptr.362", %"class.llvm::BumpPtrAllocatorImpl", %"class.llvm::UniqueStringSaver", %"class.llvm::SpecificBumpPtrAllocator", %"class.llvm::DenseMap.375", %"class.llvm::DenseSet.378", %"class.llvm::DenseSet.383", %"class.llvm::StringMap.388", i32, [4 x i8], %"class.llvm::DenseSet.389", %"class.llvm::DenseMap.394", %"class.llvm::DenseMap.397", ptr, %"class.llvm::DenseMap.400", %"class.llvm::DenseMap.403", %"class.llvm::DenseMap.406", %"class.llvm::StringMap.409", %"class.llvm::DenseMap.410", %"class.llvm::DenseMap.413", %"class.llvm::DenseMap.416", %"class.llvm::DenseMap.419", %"class.llvm::DenseMap.422", %"class.llvm::DenseMap.425", %"class.llvm::StringMap.409", %"class.llvm::StringMap.428", %"class.llvm::DenseMap.429", i8, ptr, %"class.llvm::SmallDenseMap", %"class.std::__cxx11::basic_string", %"class.std::__cxx11::basic_string" }
%"class.llvm::SmallPtrSet.53" = type { %"class.llvm::SmallPtrSetImpl.base.55", [4 x ptr] }
%"class.llvm::SmallPtrSetImpl.base.55" = type { %"class.llvm::SmallPtrSetImplBase.base" }
%"class.llvm::DenseMap" = type <{ ptr, i32, i32, i32, [4 x i8] }>
%"class.std::unique_ptr.56" = type { %"struct.std::__uniq_ptr_data.57" }
%"struct.std::__uniq_ptr_data.57" = type { %"class.std::__uniq_ptr_impl.58" }
%"class.std::__uniq_ptr_impl.58" = type { %"class.std::tuple.59" }
%"class.std::tuple.59" = type { %"struct.std::_Tuple_impl.60" }
%"struct.std::_Tuple_impl.60" = type { %"struct.std::_Head_base.63" }
%"struct.std::_Head_base.63" = type { ptr }
%"class.std::unique_ptr.64" = type { %"struct.std::__uniq_ptr_data.65" }
%"struct.std::__uniq_ptr_data.65" = type { %"class.std::__uniq_ptr_impl.66" }
%"class.std::__uniq_ptr_impl.66" = type { %"class.std::tuple.67" }
%"class.std::tuple.67" = type { %"struct.std::_Tuple_impl.68" }
%"struct.std::_Tuple_impl.68" = type { %"struct.std::_Head_base.71" }
%"struct.std::_Head_base.71" = type { ptr }
%"class.std::optional.72" = type { %"struct.std::_Optional_base.73" }
%"struct.std::_Optional_base.73" = type { %"struct.std::_Optional_payload.75" }
%"struct.std::_Optional_payload.75" = type { %"struct.std::_Optional_payload_base.base.77", [7 x i8] }
%"struct.std::_Optional_payload_base.base.77" = type <{ %"union.std::_Optional_payload_base<unsigned long>::_Storage", i8 }>
%"union.std::_Optional_payload_base<unsigned long>::_Storage" = type { i64 }
%"class.std::optional.80" = type { %"struct.std::_Optional_base.81" }
%"struct.std::_Optional_base.81" = type { %"struct.std::_Optional_payload.83" }
%"struct.std::_Optional_payload.83" = type { %"struct.std::_Optional_payload_base.base.85", [3 x i8] }
%"struct.std::_Optional_payload_base.base.85" = type <{ %"union.std::_Optional_payload_base<unsigned int>::_Storage", i8 }>
%"union.std::_Optional_payload_base<unsigned int>::_Storage" = type { i32 }
%"class.std::unique_ptr.88" = type { %"struct.std::__uniq_ptr_data.89" }
%"struct.std::__uniq_ptr_data.89" = type { %"class.std::__uniq_ptr_impl.90" }
%"class.std::__uniq_ptr_impl.90" = type { %"class.std::tuple.91" }
%"class.std::tuple.91" = type { %"struct.std::_Tuple_impl.92" }
%"struct.std::_Tuple_impl.92" = type { %"struct.std::_Head_base.95" }
%"struct.std::_Head_base.95" = type { ptr }
%"class.llvm::DenseMap.96" = type <{ ptr, i32, i32, i32, [4 x i8] }>
%"class.llvm::DenseMap.99" = type <{ ptr, i32, i32, i32, [4 x i8] }>
%"class.llvm::DenseMap.102" = type <{ ptr, i32, i32, i32, [4 x i8] }>
%"class.llvm::DenseMap.105" = type <{ ptr, i32, i32, i32, [4 x i8] }>
%"class.llvm::DenseMap.108" = type <{ ptr, i32, i32, i32, [4 x i8] }>
%"class.llvm::DenseMap.111" = type <{ ptr, i32, i32, i32, [4 x i8] }>
%"class.llvm::FoldingSet" = type { %"class.llvm::FoldingSetImpl" }
%"class.llvm::FoldingSetImpl" = type { %"class.llvm::FoldingSetBase" }
%"class.llvm::FoldingSetBase" = type { ptr, i32, i32 }
%"class.llvm::FoldingSet.114" = type { %"class.llvm::FoldingSetImpl.115" }
%"class.llvm::FoldingSetImpl.115" = type { %"class.llvm::FoldingSetBase" }
%"class.llvm::FoldingSet.116" = type { %"class.llvm::FoldingSetImpl.117" }
%"class.llvm::FoldingSetImpl.117" = type { %"class.llvm::FoldingSetBase" }
%"class.llvm::StringMap" = type { %"class.llvm::StringMapImpl", %"class.llvm::detail::AllocatorHolder" }
%"class.llvm::StringMapImpl" = type { ptr, i32, i32, i32, i32 }
%"class.llvm::detail::AllocatorHolder" = type { %"class.llvm::BumpPtrAllocatorImpl" }
%"class.llvm::DenseMap.130" = type <{ ptr, i32, i32, i32, [4 x i8] }>
%"class.llvm::DenseMap.133" = type <{ ptr, i32, i32, i32, [4 x i8] }>
%"class.llvm::DenseSet" = type { %"class.llvm::detail::DenseSetImpl" }
%"class.llvm::detail::DenseSetImpl" = type { %"class.llvm::DenseMap.136" }
%"class.llvm::DenseMap.136" = type <{ ptr, i32, i32, i32, [4 x i8] }>
%"class.llvm::DenseSet.139" = type { %"class.llvm::detail::DenseSetImpl.140" }
%"class.llvm::detail::DenseSetImpl.140" = type { %"class.llvm::DenseMap.141" }
%"class.llvm::DenseMap.141" = type <{ ptr, i32, i32, i32, [4 x i8] }>
%"class.llvm::DenseSet.144" = type { %"class.llvm::detail::DenseSetImpl.145" }
%"class.llvm::detail::DenseSetImpl.145" = type { %"class.llvm::DenseMap.146" }
%"class.llvm::DenseMap.146" = type <{ ptr, i32, i32, i32, [4 x i8] }>
%"class.llvm::DenseSet.149" = type { %"class.llvm::detail::DenseSetImpl.150" }
%"class.llvm::detail::DenseSetImpl.150" = type { %"class.llvm::DenseMap.151" }
%"class.llvm::DenseMap.151" = type <{ ptr, i32, i32, i32, [4 x i8] }>
%"class.llvm::DenseSet.154" = type { %"class.llvm::detail::DenseSetImpl.155" }
%"class.llvm::detail::DenseSetImpl.155" = type { %"class.llvm::DenseMap.156" }
%"class.llvm::DenseMap.156" = type <{ ptr, i32, i32, i32, [4 x i8] }>
%"class.llvm::DenseSet.159" = type { %"class.llvm::detail::DenseSetImpl.160" }
%"class.llvm::detail::DenseSetImpl.160" = type { %"class.llvm::DenseMap.161" }
%"class.llvm::DenseMap.161" = type <{ ptr, i32, i32, i32, [4 x i8] }>
%"class.llvm::DenseSet.164" = type { %"class.llvm::detail::DenseSetImpl.165" }
%"class.llvm::detail::DenseSetImpl.165" = type { %"class.llvm::DenseMap.166" }
%"class.llvm::DenseMap.166" = type <{ ptr, i32, i32, i32, [4 x i8] }>
%"class.llvm::DenseSet.169" = type { %"class.llvm::detail::DenseSetImpl.170" }
%"class.llvm::detail::DenseSetImpl.170" = type { %"class.llvm::DenseMap.171" }
%"class.llvm::DenseMap.171" = type <{ ptr, i32, i32, i32, [4 x i8] }>
%"class.llvm::DenseSet.174" = type { %"class.llvm::detail::DenseSetImpl.175" }
%"class.llvm::detail::DenseSetImpl.175" = type { %"class.llvm::DenseMap.176" }
%"class.llvm::DenseMap.176" = type <{ ptr, i32, i32, i32, [4 x i8] }>
%"class.llvm::DenseSet.179" = type { %"class.llvm::detail::DenseSetImpl.180" }
%"class.llvm::detail::DenseSetImpl.180" = type { %"class.llvm::DenseMap.181" }
%"class.llvm::DenseMap.181" = type <{ ptr, i32, i32, i32, [4 x i8] }>
%"class.llvm::DenseSet.184" = type { %"class.llvm::detail::DenseSetImpl.185" }
%"class.llvm::detail::DenseSetImpl.185" = type { %"class.llvm::DenseMap.186" }
%"class.llvm::DenseMap.186" = type <{ ptr, i32, i32, i32, [4 x i8] }>
%"class.llvm::DenseSet.189" = type { %"class.llvm::detail::DenseSetImpl.190" }
%"class.llvm::detail::DenseSetImpl.190" = type { %"class.llvm::DenseMap.191" }
%"class.llvm::DenseMap.191" = type <{ ptr, i32, i32, i32, [4 x i8] }>
%"class.llvm::DenseSet.194" = type { %"class.llvm::detail::DenseSetImpl.195" }
%"class.llvm::detail::DenseSetImpl.195" = type { %"class.llvm::DenseMap.196" }
%"class.llvm::DenseMap.196" = type <{ ptr, i32, i32, i32, [4 x i8] }>
%"class.llvm::DenseSet.199" = type { %"class.llvm::detail::DenseSetImpl.200" }
%"class.llvm::detail::DenseSetImpl.200" = type { %"class.llvm::DenseMap.201" }
%"class.llvm::DenseMap.201" = type <{ ptr, i32, i32, i32, [4 x i8] }>
%"class.llvm::DenseSet.204" = type { %"class.llvm::detail::DenseSetImpl.205" }
%"class.llvm::detail::DenseSetImpl.205" = type { %"class.llvm::DenseMap.206" }
%"class.llvm::DenseMap.206" = type <{ ptr, i32, i32, i32, [4 x i8] }>
%"class.llvm::DenseSet.209" = type { %"class.llvm::detail::DenseSetImpl.210" }
%"class.llvm::detail::DenseSetImpl.210" = type { %"class.llvm::DenseMap.211" }
%"class.llvm::DenseMap.211" = type <{ ptr, i32, i32, i32, [4 x i8] }>
%"class.llvm::DenseSet.214" = type { %"class.llvm::detail::DenseSetImpl.215" }
%"class.llvm::detail::DenseSetImpl.215" = type { %"class.llvm::DenseMap.216" }
%"class.llvm::DenseMap.216" = type <{ ptr, i32, i32, i32, [4 x i8] }>
%"class.llvm::DenseSet.219" = type { %"class.llvm::detail::DenseSetImpl.220" }
%"class.llvm::detail::DenseSetImpl.220" = type { %"class.llvm::DenseMap.221" }
%"class.llvm::DenseMap.221" = type <{ ptr, i32, i32, i32, [4 x i8] }>
%"class.llvm::DenseSet.224" = type { %"class.llvm::detail::DenseSetImpl.225" }
%"class.llvm::detail::DenseSetImpl.225" = type { %"class.llvm::DenseMap.226" }
%"class.llvm::DenseMap.226" = type <{ ptr, i32, i32, i32, [4 x i8] }>
%"class.llvm::DenseSet.229" = type { %"class.llvm::detail::DenseSetImpl.230" }
%"class.llvm::detail::DenseSetImpl.230" = type { %"class.llvm::DenseMap.231" }
%"class.llvm::DenseMap.231" = type <{ ptr, i32, i32, i32, [4 x i8] }>
%"class.llvm::DenseSet.234" = type { %"class.llvm::detail::DenseSetImpl.235" }
%"class.llvm::detail::DenseSetImpl.235" = type { %"class.llvm::DenseMap.236" }
%"class.llvm::DenseMap.236" = type <{ ptr, i32, i32, i32, [4 x i8] }>
%"class.llvm::DenseSet.239" = type { %"class.llvm::detail::DenseSetImpl.240" }
%"class.llvm::detail::DenseSetImpl.240" = type { %"class.llvm::DenseMap.241" }
%"class.llvm::DenseMap.241" = type <{ ptr, i32, i32, i32, [4 x i8] }>
%"class.llvm::DenseSet.244" = type { %"class.llvm::detail::DenseSetImpl.245" }
%"class.llvm::detail::DenseSetImpl.245" = type { %"class.llvm::DenseMap.246" }
%"class.llvm::DenseMap.246" = type <{ ptr, i32, i32, i32, [4 x i8] }>
%"class.llvm::DenseSet.249" = type { %"class.llvm::detail::DenseSetImpl.250" }
%"class.llvm::detail::DenseSetImpl.250" = type { %"class.llvm::DenseMap.251" }
%"class.llvm::DenseMap.251" = type <{ ptr, i32, i32, i32, [4 x i8] }>
%"class.llvm::DenseSet.254" = type { %"class.llvm::detail::DenseSetImpl.255" }
%"class.llvm::detail::DenseSetImpl.255" = type { %"class.llvm::DenseMap.256" }
%"class.llvm::DenseMap.256" = type <{ ptr, i32, i32, i32, [4 x i8] }>
%"class.llvm::DenseSet.259" = type { %"class.llvm::detail::DenseSetImpl.260" }
%"class.llvm::detail::DenseSetImpl.260" = type { %"class.llvm::DenseMap.261" }
%"class.llvm::DenseMap.261" = type <{ ptr, i32, i32, i32, [4 x i8] }>
%"class.llvm::DenseSet.264" = type { %"class.llvm::detail::DenseSetImpl.265" }
%"class.llvm::detail::DenseSetImpl.265" = type { %"class.llvm::DenseMap.266" }
%"class.llvm::DenseMap.266" = type <{ ptr, i32, i32, i32, [4 x i8] }>
%"class.llvm::DenseSet.269" = type { %"class.llvm::detail::DenseSetImpl.270" }
%"class.llvm::detail::DenseSetImpl.270" = type { %"class.llvm::DenseMap.271" }
%"class.llvm::DenseMap.271" = type <{ ptr, i32, i32, i32, [4 x i8] }>
%"class.llvm::DenseSet.274" = type { %"class.llvm::detail::DenseSetImpl.275" }
%"class.llvm::detail::DenseSetImpl.275" = type { %"class.llvm::DenseMap.276" }
%"class.llvm::DenseMap.276" = type <{ ptr, i32, i32, i32, [4 x i8] }>
%"class.llvm::DenseSet.279" = type { %"class.llvm::detail::DenseSetImpl.280" }
%"class.llvm::detail::DenseSetImpl.280" = type { %"class.llvm::DenseMap.281" }
%"class.llvm::DenseMap.281" = type <{ ptr, i32, i32, i32, [4 x i8] }>
%"class.std::optional.284" = type { %"struct.std::_Optional_base.285" }
%"struct.std::_Optional_base.285" = type { %"struct.std::_Optional_payload.287" }
%"struct.std::_Optional_payload.287" = type { %"struct.std::_Optional_payload.base.294", [7 x i8] }
%"struct.std::_Optional_payload.base.294" = type { %"struct.std::_Optional_payload_base.base.293" }
%"struct.std::_Optional_payload_base.base.293" = type { %"union.std::_Optional_payload_base<llvm::DenseMap<const llvm::MDString *, llvm::DICompositeType *>>::_Storage", i8 }
%"union.std::_Optional_payload_base<llvm::DenseMap<const llvm::MDString *, llvm::DICompositeType *>>::_Storage" = type { %"class.llvm::DenseMap.290" }
%"class.llvm::DenseMap.290" = type <{ ptr, i32, i32, i32, [4 x i8] }>
%"class.std::vector" = type { %"struct.std::_Vector_base" }
%"struct.std::_Vector_base" = type { %"struct.std::_Vector_base<llvm::MDNode *, std::allocator<llvm::MDNode *>>::_Vector_impl" }
%"struct.std::_Vector_base<llvm::MDNode *, std::allocator<llvm::MDNode *>>::_Vector_impl" = type { %"struct.std::_Vector_base<llvm::MDNode *, std::allocator<llvm::MDNode *>>::_Vector_impl_data" }
%"struct.std::_Vector_base<llvm::MDNode *, std::allocator<llvm::MDNode *>>::_Vector_impl_data" = type { ptr, ptr, ptr }
%"class.std::vector.297" = type { %"struct.std::_Vector_base.298" }
%"struct.std::_Vector_base.298" = type { %"struct.std::_Vector_base<llvm::ConstantRangeListAttributeImpl *, std::allocator<llvm::ConstantRangeListAttributeImpl *>>::_Vector_impl" }
%"struct.std::_Vector_base<llvm::ConstantRangeListAttributeImpl *, std::allocator<llvm::ConstantRangeListAttributeImpl *>>::_Vector_impl" = type { %"struct.std::_Vector_base<llvm::ConstantRangeListAttributeImpl *, std::allocator<llvm::ConstantRangeListAttributeImpl *>>::_Vector_impl_data" }
%"struct.std::_Vector_base<llvm::ConstantRangeListAttributeImpl *, std::allocator<llvm::ConstantRangeListAttributeImpl *>>::_Vector_impl_data" = type { ptr, ptr, ptr }
%"class.llvm::DenseMap.302" = type <{ ptr, i32, i32, i32, [4 x i8] }>
%"class.llvm::ConstantUniqueMap" = type { %"class.llvm::DenseSet.305" }
%"class.llvm::DenseSet.305" = type { %"class.llvm::detail::DenseSetImpl.306" }
%"class.llvm::detail::DenseSetImpl.306" = type { %"class.llvm::DenseMap.307" }
%"class.llvm::DenseMap.307" = type <{ ptr, i32, i32, i32, [4 x i8] }>
%"class.llvm::ConstantUniqueMap.310" = type { %"class.llvm::DenseSet.311" }
%"class.llvm::DenseSet.311" = type { %"class.llvm::detail::DenseSetImpl.312" }
%"class.llvm::detail::DenseSetImpl.312" = type { %"class.llvm::DenseMap.313" }
%"class.llvm::DenseMap.313" = type <{ ptr, i32, i32, i32, [4 x i8] }>
%"class.llvm::ConstantUniqueMap.316" = type { %"class.llvm::DenseSet.317" }
%"class.llvm::DenseSet.317" = type { %"class.llvm::detail::DenseSetImpl.318" }
%"class.llvm::detail::DenseSetImpl.318" = type { %"class.llvm::DenseMap.319" }
%"class.llvm::DenseMap.319" = type <{ ptr, i32, i32, i32, [4 x i8] }>
%"class.llvm::DenseMap.322" = type <{ ptr, i32, i32, i32, [4 x i8] }>
%"class.llvm::DenseMap.325" = type <{ ptr, i32, i32, i32, [4 x i8] }>
%"class.llvm::DenseMap.328" = type <{ ptr, i32, i32, i32, [4 x i8] }>
%"class.llvm::DenseMap.331" = type <{ ptr, i32, i32, i32, [4 x i8] }>
%"class.llvm::StringMap.334" = type { %"class.llvm::StringMapImpl" }
%"class.llvm::DenseMap.335" = type <{ ptr, i32, i32, i32, [4 x i8] }>
%"class.llvm::DenseMap.338" = type <{ ptr, i32, i32, i32, [4 x i8] }>
%"class.llvm::DenseMap.341" = type <{ ptr, i32, i32, i32, [4 x i8] }>
%"class.llvm::ConstantUniqueMap.344" = type { %"class.llvm::DenseSet.345" }
%"class.llvm::DenseSet.345" = type { %"class.llvm::detail::DenseSetImpl.346" }
%"class.llvm::detail::DenseSetImpl.346" = type { %"class.llvm::DenseMap.347" }
%"class.llvm::DenseMap.347" = type <{ ptr, i32, i32, i32, [4 x i8] }>
%"class.llvm::ConstantUniqueMap.350" = type { %"class.llvm::DenseSet.351" }
%"class.llvm::DenseSet.351" = type { %"class.llvm::detail::DenseSetImpl.352" }
%"class.llvm::detail::DenseSetImpl.352" = type { %"class.llvm::DenseMap.353" }
%"class.llvm::DenseMap.353" = type <{ ptr, i32, i32, i32, [4 x i8] }>
%"class.llvm::ConstantUniqueMap.356" = type { %"class.llvm::DenseSet.357" }
%"class.llvm::DenseSet.357" = type { %"class.llvm::detail::DenseSetImpl.358" }
%"class.llvm::detail::DenseSetImpl.358" = type { %"class.llvm::DenseMap.359" }
%"class.llvm::DenseMap.359" = type <{ ptr, i32, i32, i32, [4 x i8] }>
%"class.llvm::IntegerType" = type { %"class.llvm::Type" }
%"class.std::unique_ptr.362" = type { %"struct.std::__uniq_ptr_data.363" }
%"struct.std::__uniq_ptr_data.363" = type { %"class.std::__uniq_ptr_impl.364" }
%"class.std::__uniq_ptr_impl.364" = type { %"class.std::tuple.365" }
%"class.std::tuple.365" = type { %"struct.std::_Tuple_impl.366" }
%"struct.std::_Tuple_impl.366" = type { %"struct.std::_Head_base.369" }
%"struct.std::_Head_base.369" = type { ptr }
%"class.llvm::BumpPtrAllocatorImpl" = type { ptr, ptr, %"class.llvm::SmallVector.120", %"class.llvm::SmallVector.125", i64, i64 }
%"class.llvm::SmallVector.120" = type { %"class.llvm::SmallVectorImpl.121", %"struct.llvm::SmallVectorStorage.124" }
%"class.llvm::SmallVectorImpl.121" = type { %"class.llvm::SmallVectorTemplateBase.122" }
%"class.llvm::SmallVectorTemplateBase.122" = type { %"class.llvm::SmallVectorTemplateCommon.123" }
%"class.llvm::SmallVectorTemplateCommon.123" = type { %"class.llvm::SmallVectorBase" }
%"struct.llvm::SmallVectorStorage.124" = type { [32 x i8] }
%"class.llvm::SmallVector.125" = type { %"class.llvm::SmallVectorImpl.126" }
%"class.llvm::SmallVectorImpl.126" = type { %"class.llvm::SmallVectorTemplateBase.127" }
%"class.llvm::SmallVectorTemplateBase.127" = type { %"class.llvm::SmallVectorTemplateCommon.128" }
%"class.llvm::SmallVectorTemplateCommon.128" = type { %"class.llvm::SmallVectorBase" }
%"class.llvm::UniqueStringSaver" = type { %"class.llvm::StringSaver", %"class.llvm::DenseSet.370" }
%"class.llvm::StringSaver" = type { ptr }
%"class.llvm::DenseSet.370" = type { %"class.llvm::detail::DenseSetImpl.371" }
%"class.llvm::detail::DenseSetImpl.371" = type { %"class.llvm::DenseMap.372" }
%"class.llvm::DenseMap.372" = type <{ ptr, i32, i32, i32, [4 x i8] }>
%"class.llvm::SpecificBumpPtrAllocator" = type { %"class.llvm::BumpPtrAllocatorImpl" }
%"class.llvm::DenseMap.375" = type <{ ptr, i32, i32, i32, [4 x i8] }>
%"class.llvm::DenseSet.378" = type { %"class.llvm::detail::DenseSetImpl.379" }
%"class.llvm::detail::DenseSetImpl.379" = type { %"class.llvm::DenseMap.380" }
%"class.llvm::DenseMap.380" = type <{ ptr, i32, i32, i32, [4 x i8] }>
%"class.llvm::DenseSet.383" = type { %"class.llvm::detail::DenseSetImpl.384" }
%"class.llvm::detail::DenseSetImpl.384" = type { %"class.llvm::DenseMap.385" }
%"class.llvm::DenseMap.385" = type <{ ptr, i32, i32, i32, [4 x i8] }>
%"class.llvm::StringMap.388" = type { %"class.llvm::StringMapImpl" }
%"class.llvm::DenseSet.389" = type { %"class.llvm::detail::DenseSetImpl.390" }
%"class.llvm::detail::DenseSetImpl.390" = type { %"class.llvm::DenseMap.391" }
%"class.llvm::DenseMap.391" = type <{ ptr, i32, i32, i32, [4 x i8] }>
%"class.llvm::DenseMap.394" = type <{ ptr, i32, i32, i32, [4 x i8] }>
%"class.llvm::DenseMap.397" = type <{ ptr, i32, i32, i32, [4 x i8] }>
%"class.llvm::DenseMap.400" = type <{ ptr, i32, i32, i32, [4 x i8] }>
%"class.llvm::DenseMap.403" = type <{ ptr, i32, i32, i32, [4 x i8] }>
%"class.llvm::DenseMap.406" = type <{ ptr, i32, i32, i32, [4 x i8] }>
%"class.llvm::DenseMap.410" = type <{ ptr, i32, i32, i32, [4 x i8] }>
%"class.llvm::DenseMap.413" = type <{ ptr, i32, i32, i32, [4 x i8] }>
%"class.llvm::DenseMap.416" = type <{ ptr, i32, i32, i32, [4 x i8] }>
%"class.llvm::DenseMap.419" = type <{ ptr, i32, i32, i32, [4 x i8] }>
%"class.llvm::DenseMap.422" = type <{ ptr, i32, i32, i32, [4 x i8] }>
%"class.llvm::DenseMap.425" = type <{ ptr, i32, i32, i32, [4 x i8] }>
%"class.llvm::StringMap.409" = type { %"class.llvm::StringMapImpl" }
%"class.llvm::StringMap.428" = type { %"class.llvm::StringMapImpl" }
%"class.llvm::DenseMap.429" = type <{ ptr, i32, i32, i32, [4 x i8] }>
%"class.llvm::SmallDenseMap" = type { i32, i32, %"struct.llvm::AlignedCharArrayUnion" }
%"struct.llvm::AlignedCharArrayUnion" = type { [64 x i8] }
%"class.std::__cxx11::basic_string" = type { %"struct.std::__cxx11::basic_string<char>::_Alloc_hider", i64, %union.anon.436 }
%"struct.std::__cxx11::basic_string<char>::_Alloc_hider" = type { ptr }
%union.anon.436 = type { i64, [8 x i8] }
%"class.llvm::ArrayRef" = type { ptr, i64 }
%"struct.llvm::ConstantAggrKeyType" = type { %"class.llvm::ArrayRef" }

; Function Attrs: mustprogress nounwind uwtable
define linkonce_odr hidden void @_ZN4llvm19ConstantAggrKeyTypeINS_13ConstantArrayEEC2ENS_8ArrayRefIPNS_8ConstantEEE(ptr noundef nonnull align 8 dereferenceable(16) %0, ptr %1, i64 %2) unnamed_addr #1 comdat align 2 {
  %4 = alloca %"class.llvm::ArrayRef", align 8
  %5 = alloca ptr, align 8
  %6 = getelementptr inbounds nuw { ptr, i64 }, ptr %4, i32 0, i32 0
  store ptr %1, ptr %6, align 8
  %7 = getelementptr inbounds nuw { ptr, i64 }, ptr %4, i32 0, i32 1
  store i64 %2, ptr %7, align 8
  store ptr %0, ptr %5, align 8
  %8 = load ptr, ptr %5, align 8
  %9 = getelementptr inbounds nuw %"struct.llvm::ConstantAggrKeyType", ptr %8, i32 0, i32 0
  call void @llvm.memcpy.p0.p0.i64(ptr align 8 %9, ptr align 8 %4, i64 16, i1 false)
  ret void
}

; Function Attrs: mustprogress nounwind uwtable
define linkonce_odr hidden noundef nonnull align 8 dereferenceable(8) ptr @_ZNK4llvm4Type10getContextEv(ptr noundef nonnull align 8 dereferenceable(24) %0) #1 comdat align 2 {
  %2 = alloca ptr, align 8
  store ptr %0, ptr %2, align 8
  %3 = load ptr, ptr %2, align 8
  %4 = getelementptr inbounds nuw %"class.llvm::Type", ptr %3, i32 0, i32 0
  %5 = load ptr, ptr %4, align 8
  ret ptr %5
}

; Function Attrs: mustprogress nounwind uwtable
define dso_local noundef ptr @_ZN4llvm13ConstantArray3getEPNS_9ArrayTypeENS_8ArrayRefIPNS_8ConstantEEE(ptr noundef %0, ptr %1, i64 %2) #1 align 2 {
  %4 = alloca ptr, align 8
  %5 = alloca %"class.llvm::ArrayRef", align 8
  %6 = alloca ptr, align 8
  %7 = alloca ptr, align 8
  %8 = alloca %"class.llvm::ArrayRef", align 8
  %9 = alloca %"struct.llvm::ConstantAggrKeyType", align 8
  %10 = alloca %"class.llvm::ArrayRef", align 8
  %11 = getelementptr inbounds nuw { ptr, i64 }, ptr %5, i32 0, i32 0
  store ptr %1, ptr %11, align 8
  %12 = getelementptr inbounds nuw { ptr, i64 }, ptr %5, i32 0, i32 1
  store i64 %2, ptr %12, align 8
  store ptr %0, ptr %6, align 8
  %13 = load ptr, ptr %6, align 8
  call void @llvm.memcpy.p0.p0.i64(ptr align 8 %8, ptr align 8 %5, i64 16, i1 false)
  %14 = getelementptr inbounds nuw { ptr, i64 }, ptr %8, i32 0, i32 0
  %15 = load ptr, ptr %14, align 8
  %16 = getelementptr inbounds nuw { ptr, i64 }, ptr %8, i32 0, i32 1
  %17 = load i64, ptr %16, align 8
  %18 = call noundef ptr @_ZN4llvm13ConstantArray7getImplEPNS_9ArrayTypeENS_8ArrayRefIPNS_8ConstantEEE(ptr noundef %13, ptr %15, i64 %17)
  store ptr %18, ptr %7, align 8
  %19 = load ptr, ptr %7, align 8
  %20 = icmp ne ptr %19, null
  br i1 %20, label %21, label %23

21:                                               ; preds = %3
  %22 = load ptr, ptr %7, align 8
  store ptr %22, ptr %4, align 8
  br label %39

23:                                               ; preds = %3
  %24 = load ptr, ptr %6, align 8
  %25 = call noundef nonnull align 8 dereferenceable(8) ptr @_ZNK4llvm4Type10getContextEv(ptr noundef nonnull align 8 dereferenceable(24) %24)
  %26 = getelementptr inbounds nuw %"class.llvm::LLVMContext", ptr %25, i32 0, i32 0
  %27 = load ptr, ptr %26, align 8
  %28 = getelementptr inbounds nuw %"class.llvm::LLVMContextImpl", ptr %27, i32 0, i32 60
  %29 = load ptr, ptr %6, align 8
  call void @llvm.memcpy.p0.p0.i64(ptr align 8 %10, ptr align 8 %5, i64 16, i1 false)
  %30 = getelementptr inbounds nuw { ptr, i64 }, ptr %10, i32 0, i32 0
  %31 = load ptr, ptr %30, align 8
  %32 = getelementptr inbounds nuw { ptr, i64 }, ptr %10, i32 0, i32 1
  %33 = load i64, ptr %32, align 8
  call void @_ZN4llvm19ConstantAggrKeyTypeINS_13ConstantArrayEEC2ENS_8ArrayRefIPNS_8ConstantEEE(ptr noundef nonnull align 8 dereferenceable(16) %9, ptr %31, i64 %33)
  %34 = getelementptr inbounds nuw { ptr, i64 }, ptr %9, i32 0, i32 0
  %35 = load ptr, ptr %34, align 8
  %36 = getelementptr inbounds nuw { ptr, i64 }, ptr %9, i32 0, i32 1
  %37 = load i64, ptr %36, align 8
  %38 = call noundef ptr @_ZN4llvm17ConstantUniqueMapINS_13ConstantArrayEE11getOrCreateEPNS_9ArrayTypeENS_19ConstantAggrKeyTypeIS1_EE(ptr noundef nonnull align 8 dereferenceable(24) %28, ptr noundef %29, ptr %35, i64 %37)
  store ptr %38, ptr %4, align 8
  br label %39

39:                                               ; preds = %23, %21
  %40 = load ptr, ptr %4, align 8
  ret ptr %40
}