; Function Attrs: mustprogress nounwind uwtable
define dso_local noundef ptr @_ZN4llvm13ConstantArray3getEPNS_9ArrayTypeENS_8ArrayRefIPNS_8ConstantEEE(ptr noundef %0, ptr %1, i64 %2) local_unnamed_addr #0 align 2 {
  %4 = tail call noundef ptr @_ZN4llvm13ConstantArray7getImplEPNS_9ArrayTypeENS_8ArrayRefIPNS_8ConstantEEE(ptr noundef %0, ptr %1, i64 %2)
  %.not = icmp eq ptr %4, null
  br i1 %.not, label %5, label %10

5:                                                ; preds = %3
  %6 = load ptr, ptr %0, align 8
  %7 = load ptr, ptr %6, align 8
  %8 = getelementptr inbounds nuw i8, ptr %7, i64 1376
  %9 = tail call noundef ptr @_ZN4llvm17ConstantUniqueMapINS_13ConstantArrayEE11getOrCreateEPNS_9ArrayTypeENS_19ConstantAggrKeyTypeIS1_EE(ptr noundef nonnull align 8 dereferenceable(24) %8, ptr noundef nonnull %0, ptr %1, i64 %2)
  br label %10

10:                                               ; preds = %3, %5
  %.0 = phi ptr [ %9, %5 ], [ %4, %3 ]
  ret ptr %.0
}